cnumpy.core.multiarray
_reconstruct
p0
(cnumpy
ndarray
p1
(I0
tp2
S'b'
p3
tp4
Rp5
(I1
(L20L
tp6
cnumpy
dtype
p7
(S'O8'
p8
I0
I1
tp9
Rp10
(I3
S'|'
p11
NNNI-1
I-1
I63
tp12
bI00
(lp13
S'acer_platanoides'
p14
aS'aesculus_hippocastanum'
p15
aS'alnus_incana'
p16
aS'berberis_vulgaris'
p17
aS'betula_pendula'
p18
aS'betula_pubescens'
p19
aS'corylus_avellana'
p20
aS'crataegus_monogyna'
p21
aS'fagus_sylvatica'
p22
aS'fraxinus_excelsior'
p23
aS'ginkgo_biloba'
p24
aS'populus_nigra'
p25
aS'populus_tremula'
p26
aS'prunus_padus'
p27
aS'quercus_robur'
p28
aS'salix_alba'
p29
aS'sorbus_aucuparia'
p30
aS'syringa_vulgaris'
p31
aS'tilia_cordata'
p32
aS'ulmus_laevis'
p33
atp34
b.