cnumpy.core.multiarray
_reconstruct
p0
(cnumpy
ndarray
p1
(I0
tp2
S'b'
p3
tp4
Rp5
(I1
(L20L
tp6
cnumpy
dtype
p7
(S'O8'
p8
I0
I1
tp9
Rp10
(I3
S'|'
p11
NNNI-1
I-1
I63
tp12
bI00
(lp13
S'acer platanoides'
p14
aS'aesculus hippocastanum'
p15
aS'alnus incana'
p16
aS'berberis vulgaris'
p17
aS'betula pendula'
p18
aS'betula pubescens'
p19
aS'corylus avellana'
p20
aS'crataegus monogyna'
p21
aS'fagus sylvatica'
p22
aS'fraxinus excelsior'
p23
aS'ginkgo biloba'
p24
aS'populus nigra'
p25
aS'populus tremula'
p26
aS'prunus padus'
p27
aS'quercus robur'
p28
aS'salix alba'
p29
aS'sorbus aucuparia'
p30
aS'syringa vulgaris'
p31
aS'tilia cordata'
p32
aS'ulmus laevis'
p33
atp34
b.